target datalayout = "e-m:e-p270:32:32-p271:32:32-p272:64:64-i64:64-i128:128-f80:128-n8:16:32:64-S128"
target triple = "x86_64-unknown-linux-gnu"

%"class.sat::literal" = type { i32 }
%class.svector.5 = type { %class.vector.6 }
%class.vector.6 = type { ptr }
%"class.pb::solver" = type <{ %"class.euf::th_solver", %"class.pb::solver_interface", ptr, %class.pb_util, ptr, ptr, %"struct.pb::solver::stats", [4 x i8], %class.small_object_allocator, %class.ptr_vector.3, %class.ptr_vector.3, %class.ptr_vector.3, %class.svector.5, i32, i32, i32, i32, %class.svector.7, %class.svector.5, i32, [4 x i8], %class.tracked_uint_set, %class.svector.11, %class.svector.11, i32, [4 x i8], %class.svector.5, %class.svector.11, %class.svector.5, %"struct.pb::solver::ba_sort", %class.psort_nw, %class.vector.13, %"class.sat::use_list", i8, i8, i8, [5 x i8], %class.svector.11, %class.svector.15, %class.svector.5, %class.svector.17, i32, i8, [3 x i8], %"struct.pb::solver::ineq", %"struct.pb::solver::ineq", %"struct.pb::solver::ineq", i8, [7 x i8] }>
%"class.euf::th_solver" = type { %"class.sat::extension", %"class.euf::th_model_builder", %"class.euf::th_decompile", %"class.euf::th_internalizer", ptr }
%"class.sat::extension" = type { ptr, i8, i32, %class.symbol, ptr }
%class.symbol = type { ptr }
%"class.euf::th_model_builder" = type { ptr }
%"class.euf::th_decompile" = type { ptr }
%"class.euf::th_internalizer" = type { ptr, %class.ptr_vector, %class.svector }
%class.ptr_vector = type { %class.vector }
%class.vector = type { ptr }
%class.svector = type { %class.vector.0 }
%class.vector.0 = type { ptr }
%"class.pb::solver_interface" = type { ptr }
%class.pb_util = type { ptr, i32, %class.vector.1, %class.vector.2, %class.rational }
%class.vector.1 = type { ptr }
%class.vector.2 = type { ptr }
%class.rational = type { %class.mpq }
%class.mpq = type { %class.mpz, %class.mpz }
%class.mpz = type { i32, i8, ptr }
%"struct.pb::solver::stats" = type { i32, i32, i32, i32, i32, i32, i32, i32, i32, i32, i32 }
%class.small_object_allocator = type { [32 x ptr], [32 x ptr], i64 }
%class.ptr_vector.3 = type { %class.vector.4 }
%class.vector.4 = type { ptr }
%class.svector.7 = type { %class.vector.8 }
%class.vector.8 = type { ptr }
%class.tracked_uint_set = type { %class.svector.9, %class.svector.5 }
%class.svector.9 = type { %class.vector.10 }
%class.vector.10 = type { ptr }
%"struct.pb::solver::ba_sort" = type { ptr, %"class.sat::literal", %class.svector.11 }
%class.psort_nw = type { %struct.sorting_network_config, ptr, i32, %"struct.psort_nw<pb::solver::ba_sort>::stats" }
%struct.sorting_network_config = type { i32 }
%"struct.psort_nw<pb::solver::ba_sort>::stats" = type { i32, i32, i32 }
%class.vector.13 = type { ptr }
%"class.sat::use_list" = type { %class.vector.14 }
%class.vector.14 = type { ptr }
%class.svector.11 = type { %class.vector.12 }
%class.vector.12 = type { ptr }
%class.svector.15 = type { %class.vector.16 }
%class.vector.16 = type { ptr }
%class.svector.17 = type { %class.vector.18 }
%class.vector.18 = type { ptr }
%"struct.pb::solver::ineq" = type { %class.svector.17, i64 }

; Function Attrs: mustprogress nounwind uwtable
define linkonce_odr hidden noundef i32 @_ZNK6vectorIlLb0EjE4sizeEv(ptr noundef nonnull align 8 dereferenceable(8) %this) #4 comdat align 2 {
entry:
  %retval = alloca i32, align 4
  %this.addr = alloca ptr, align 8
  store ptr %this, ptr %this.addr, align 8
  %this1 = load ptr, ptr %this.addr, align 8
  %m_data = getelementptr inbounds %class.vector.8, ptr %this1, i32 0, i32 0
  %0 = load ptr, ptr %m_data, align 8
  %cmp = icmp eq ptr %0, null
  br i1 %cmp, label %if.then, label %if.end

if.then:                                          ; preds = %entry
  store i32 0, ptr %retval, align 4
  br label %return

if.end:                                           ; preds = %entry
  %m_data2 = getelementptr inbounds %class.vector.8, ptr %this1, i32 0, i32 0
  %1 = load ptr, ptr %m_data2, align 8
  %arrayidx = getelementptr inbounds i32, ptr %1, i64 -1
  %2 = load i32, ptr %arrayidx, align 4
  store i32 %2, ptr %retval, align 4
  br label %return

return:                                           ; preds = %if.end, %if.then
  %3 = load i32, ptr %retval, align 4
  ret i32 %3
}

; Function Attrs: mustprogress nounwind uwtable
define linkonce_odr hidden noundef nonnull align 8 dereferenceable(8) ptr @_ZNK6vectorIlLb0EjE3getEjRKl(ptr noundef nonnull align 8 dereferenceable(8) %this, i32 noundef %idx, ptr noundef nonnull align 8 dereferenceable(8) %d) #4 comdat align 2 {
entry:
  %retval = alloca ptr, align 8
  %this.addr = alloca ptr, align 8
  %idx.addr = alloca i32, align 4
  %d.addr = alloca ptr, align 8
  store ptr %this, ptr %this.addr, align 8
  store i32 %idx, ptr %idx.addr, align 4
  store ptr %d, ptr %d.addr, align 8
  %this1 = load ptr, ptr %this.addr, align 8
  %0 = load i32, ptr %idx.addr, align 4
  %call = call noundef i32 @_ZNK6vectorIlLb0EjE4sizeEv(ptr noundef nonnull align 8 dereferenceable(8) %this1)
  %cmp = icmp uge i32 %0, %call
  br i1 %cmp, label %if.then, label %if.end

if.then:                                          ; preds = %entry
  %1 = load ptr, ptr %d.addr, align 8
  store ptr %1, ptr %retval, align 8
  br label %return

if.end:                                           ; preds = %entry
  %m_data = getelementptr inbounds %class.vector.8, ptr %this1, i32 0, i32 0
  %2 = load ptr, ptr %m_data, align 8
  %3 = load i32, ptr %idx.addr, align 4
  %idxprom = zext i32 %3 to i64
  %arrayidx = getelementptr inbounds i64, ptr %2, i64 %idxprom
  store ptr %arrayidx, ptr %retval, align 8
  br label %return

return:                                           ; preds = %if.end, %if.then
  %4 = load ptr, ptr %retval, align 8
  ret ptr %4
}

; Function Attrs: mustprogress nounwind uwtable
define linkonce_odr noundef i64 @_ZSt3absl(i64 noundef %__i) #4 comdat {
entry:
  %__i.addr = alloca i64, align 8
  store i64 %__i, ptr %__i.addr, align 8
  %0 = load i64, ptr %__i.addr, align 8
  %1 = call i64 @llvm.abs.i64(i64 %0, i1 true)
  ret i64 %1
}

; Function Attrs: mustprogress uwtable
define hidden noundef i64 @_ZNK2pb6solver9get_coeffEj(ptr noundef nonnull align 8 dereferenceable(1049) %this, i32 noundef %v) #5 align 2 {
entry:
  %this.addr = alloca ptr, align 8
  %v.addr = alloca i32, align 4
  %ref.tmp = alloca i64, align 8
  store ptr %this, ptr %this.addr, align 8
  store i32 %v, ptr %v.addr, align 4
  %this1 = load ptr, ptr %this.addr, align 8
  %m_coeffs = getelementptr inbounds %"class.pb::solver", ptr %this1, i32 0, i32 17
  %0 = load i32, ptr %v.addr, align 4
  store i64 0, ptr %ref.tmp, align 8
  %call = call noundef nonnull align 8 dereferenceable(8) ptr @_ZNK6vectorIlLb0EjE3getEjRKl(ptr noundef nonnull align 8 dereferenceable(8) %m_coeffs, i32 noundef %0, ptr noundef nonnull align 8 dereferenceable(8) %ref.tmp)
  %1 = load i64, ptr %call, align 8
  ret i64 %1
}

; Function Attrs: mustprogress nounwind uwtable
define linkonce_odr hidden noundef i32 @_ZNK3sat7literal3varEv(ptr noundef nonnull align 4 dereferenceable(4) %this) #4 comdat align 2 {
entry:
  %this.addr = alloca ptr, align 8
  store ptr %this, ptr %this.addr, align 8
  %this1 = load ptr, ptr %this.addr, align 8
  %m_val = getelementptr inbounds %"class.sat::literal", ptr %this1, i32 0, i32 0
  %0 = load i32, ptr %m_val, align 4
  %shr = lshr i32 %0, 1
  ret i32 %shr
}

; Function Attrs: mustprogress uwtable
define hidden noundef i64 @_ZNK2pb6solver9get_coeffEN3sat7literalE(ptr noundef nonnull align 8 dereferenceable(1049) %this, i32 %lit.coerce) #5 align 2 {
entry:
  %lit = alloca %"class.sat::literal", align 4
  %this.addr = alloca ptr, align 8
  %c1 = alloca i64, align 8
  %c = alloca i64, align 8
  %coerce.dive = getelementptr inbounds %"class.sat::literal", ptr %lit, i32 0, i32 0
  store i32 %lit.coerce, ptr %coerce.dive, align 4
  store ptr %this, ptr %this.addr, align 8
  %this1 = load ptr, ptr %this.addr, align 8
  %call = call noundef i32 @_ZNK3sat7literal3varEv(ptr noundef nonnull align 4 dereferenceable(4) %lit)
  %call2 = call noundef i64 @_ZNK2pb6solver9get_coeffEj(ptr noundef nonnull align 8 dereferenceable(1049) %this1, i32 noundef %call)
  store i64 %call2, ptr %c1, align 8
  %0 = load i64, ptr %c1, align 8
  %call3 = call noundef i64 @_ZSt3absl(i64 noundef %0)
  store i64 %call3, ptr %c, align 8
  %1 = load i64, ptr %c, align 8
  %2 = load i64, ptr %c1, align 8
  %cmp = icmp ne i64 %1, %2
  %conv = zext i1 %cmp to i32
  %m_overflow = getelementptr inbounds %"class.pb::solver", ptr %this1, i32 0, i32 42
  %3 = load i8, ptr %m_overflow, align 4
  %tobool = trunc i8 %3 to i1
  %conv4 = zext i1 %tobool to i32
  %or = or i32 %conv4, %conv
  %tobool5 = icmp ne i32 %or, 0
  %frombool = zext i1 %tobool5 to i8
  store i8 %frombool, ptr %m_overflow, align 4
  %4 = load i64, ptr %c, align 8
  ret i64 %4
}