; Function Attrs: mustprogress nofree norecurse nosync nounwind willreturn memory(read, argmem: readwrite, inaccessiblemem: none) uwtable
define hidden noundef i64 @_ZNK2pb6solver9get_coeffEN3sat7literalE(ptr nocapture noundef nonnull align 8 dereferenceable(1049) %this, i32 %lit.coerce) local_unnamed_addr #11 align 2 {
entry:
  %shr.i = lshr i32 %lit.coerce, 1
  %m_coeffs.i = getelementptr inbounds i8, ptr %this, i64 792
  %0 = load ptr, ptr %m_coeffs.i, align 8
  %cmp.i.i.i = icmp eq ptr %0, null
  br i1 %cmp.i.i.i, label %_ZNK2pb6solver9get_coeffEj.exit, label %_ZNK6vectorIlLb0EjE3getEjRKl.exit.i

_ZNK6vectorIlLb0EjE3getEjRKl.exit.i:              ; preds = %entry
  %arrayidx.i.i.i = getelementptr inbounds i8, ptr %0, i64 -4
  %1 = load i32, ptr %arrayidx.i.i.i, align 4
  %cmp.not.i.i = icmp ugt i32 %1, %shr.i
  br i1 %cmp.not.i.i, label %_ZNK6vectorIlLb0EjE3getEjRKl.exit.then.i, label %_ZNK2pb6solver9get_coeffEj.exit

_ZNK6vectorIlLb0EjE3getEjRKl.exit.then.i:         ; preds = %_ZNK6vectorIlLb0EjE3getEjRKl.exit.i
  %idxprom.i.i = zext nneg i32 %shr.i to i64
  %arrayidx.i.i = getelementptr inbounds i64, ptr %0, i64 %idxprom.i.i
  %.then.val.i = load i64, ptr %arrayidx.i.i, align 8
  br label %_ZNK2pb6solver9get_coeffEj.exit

_ZNK2pb6solver9get_coeffEj.exit:                  ; preds = %entry, %_ZNK6vectorIlLb0EjE3getEjRKl.exit.i, %_ZNK6vectorIlLb0EjE3getEjRKl.exit.then.i
  %2 = phi i64 [ %.then.val.i, %_ZNK6vectorIlLb0EjE3getEjRKl.exit.then.i ], [ 0, %_ZNK6vectorIlLb0EjE3getEjRKl.exit.i ], [ 0, %entry ]
  %3 = tail call noundef i64 @llvm.abs.i64(i64 %2, i1 true)
  %m_overflow = getelementptr inbounds i8, ptr %this, i64 996
  %4 = load i8, ptr %m_overflow, align 4
  %5 = and i8 %4, 1
  %.lobit = lshr i64 %2, 63
  %6 = trunc i64 %.lobit to i8
  %7 = or i8 %5, %6
  store i8 %7, ptr %m_overflow, align 4
  ret i64 %3
}